(i__main__
Node
p0
(dp1
S'right'
p2
(i__main__
Node
p3
(dp4
g2
(i__main__
Node
p5
(dp6
g2
(i__main__
Node
p7
(dp8
g2
(i__main__
Node
p9
(dp10
g2
NsS'data'
p11
I80
sS'left'
p12
(i__main__
Node
p13
(dp14
g2
Nsg11
I50
sg12
Nsbsbsg11
I40
sg12
Nsbsg11
I30
sg12
(i__main__
Node
p15
(dp16
g2
Nsg11
I26
sg12
Nsbsbsg11
I20
sg12
Nsbsg11
I10
sg12
(i__main__
Node
p17
(dp18
g2
(i__main__
Node
p19
(dp20
g2
Nsg11
I5
sg12
Nsbsg11
I1
sg12
Nsbsb.